; Function Attrs: nofree norecurse nosync nounwind memory(argmem: readwrite) uwtable
define internal void @pred8x8l_left_dc_8_c(ptr noundef captures(none) %0, i32 noundef %1, i32 %2, i64 noundef %3) #3 {
  %5 = trunc i64 %3 to i32
  %.not = icmp eq i32 %1, 0
  %6 = xor i64 %3, -1
  %sext = shl i64 %6, 32
  %7 = ashr exact i64 %sext, 32
  %8 = getelementptr inbounds i8, ptr %0, i64 %7
  %9 = getelementptr inbounds i8, ptr %0, i64 -1
  %.in.in = select i1 %.not, ptr %9, ptr %8
  %.in = load i8, ptr %.in.in, align 1, !tbaa !8
  %10 = zext i8 %.in to i32
  %11 = load i8, ptr %9, align 1, !tbaa !8
  %12 = zext i8 %11 to i32
  %13 = shl nuw nsw i32 %12, 1
  %14 = shl i64 %3, 32
  %sext67 = add i64 %14, -4294967296
  %15 = ashr exact i64 %sext67, 32
  %16 = getelementptr inbounds i8, ptr %0, i64 %15
  %17 = load i8, ptr %16, align 1, !tbaa !8
  %18 = zext i8 %17 to i32
  %19 = add nuw nsw i32 %18, 2
  %20 = add nuw nsw i32 %19, %10
  %21 = add nuw nsw i32 %20, %13
  %22 = lshr i32 %21, 2
  %23 = shl nuw nsw i32 %18, 1
  %24 = shl nsw i32 %5, 1
  %25 = sext i32 %24 to i64
  %26 = getelementptr i8, ptr %0, i64 %25
  %27 = getelementptr i8, ptr %26, i64 -1
  %28 = load i8, ptr %27, align 1, !tbaa !8
  %29 = zext i8 %28 to i32
  %30 = add nuw nsw i32 %29, 2
  %31 = add nuw nsw i32 %30, %12
  %32 = add nuw nsw i32 %31, %23
  %33 = lshr i32 %32, 2
  %34 = shl nuw nsw i32 %29, 1
  %35 = mul i64 %3, 12884901888
  %sext68 = add i64 %35, -4294967296
  %36 = ashr exact i64 %sext68, 32
  %37 = getelementptr inbounds i8, ptr %0, i64 %36
  %38 = load i8, ptr %37, align 1, !tbaa !8
  %39 = zext i8 %38 to i32
  %40 = add nuw nsw i32 %19, %34
  %41 = add nuw nsw i32 %40, %39
  %42 = lshr i32 %41, 2
  %43 = shl nuw nsw i32 %39, 1
  %44 = shl nsw i32 %5, 2
  %45 = sext i32 %44 to i64
  %46 = getelementptr i8, ptr %0, i64 %45
  %47 = getelementptr i8, ptr %46, i64 -1
  %48 = load i8, ptr %47, align 1, !tbaa !8
  %49 = zext i8 %48 to i32
  %50 = add nuw nsw i32 %30, %43
  %51 = add nuw nsw i32 %50, %49
  %52 = lshr i32 %51, 2
  %53 = shl nuw nsw i32 %49, 1
  %54 = mul i64 %3, 21474836480
  %sext69 = add i64 %54, -4294967296
  %55 = ashr exact i64 %sext69, 32
  %56 = getelementptr inbounds i8, ptr %0, i64 %55
  %57 = load i8, ptr %56, align 1, !tbaa !8
  %58 = zext i8 %57 to i32
  %59 = add nuw nsw i32 %39, 2
  %60 = add nuw nsw i32 %59, %53
  %61 = add nuw nsw i32 %60, %58
  %62 = lshr i32 %61, 2
  %63 = shl nuw nsw i32 %58, 1
  %64 = mul i64 %3, 25769803776
  %sext70 = add i64 %64, -4294967296
  %65 = ashr exact i64 %sext70, 32
  %66 = getelementptr inbounds i8, ptr %0, i64 %65
  %67 = load i8, ptr %66, align 1, !tbaa !8
  %68 = zext i8 %67 to i32
  %69 = add nuw nsw i32 %49, 2
  %70 = add nuw nsw i32 %69, %63
  %71 = add nuw nsw i32 %70, %68
  %72 = lshr i32 %71, 2
  %73 = shl nuw nsw i32 %68, 1
  %74 = mul i64 %3, 30064771072
  %sext71 = add i64 %74, -4294967296
  %75 = ashr exact i64 %sext71, 32
  %76 = getelementptr inbounds i8, ptr %0, i64 %75
  %77 = load i8, ptr %76, align 1, !tbaa !8
  %78 = zext i8 %77 to i32
  %79 = add nuw nsw i32 %58, 2
  %80 = add nuw nsw i32 %79, %73
  %81 = add nuw nsw i32 %80, %78
  %82 = lshr i32 %81, 2
  %83 = mul nuw nsw i32 %78, 3
  %84 = add nuw nsw i32 %68, 2
  %85 = add nuw nsw i32 %84, %83
  %86 = lshr i32 %85, 2
  %87 = add nuw nsw i32 %22, 4
  %88 = add nuw nsw i32 %87, %33
  %89 = add nuw nsw i32 %88, %42
  %90 = add nuw nsw i32 %89, %52
  %91 = add nuw nsw i32 %90, %62
  %92 = add nuw nsw i32 %91, %72
  %93 = add nuw nsw i32 %92, %86
  %94 = add nuw nsw i32 %93, %82
  %95 = lshr i32 %94, 3
  %96 = mul nuw i32 %95, 16843009
  %97 = ashr exact i64 %14, 32
  br label %98

98:                                               ; preds = %4, %98
  %.074 = phi i32 [ 0, %4 ], [ %101, %98 ]
  %.06673 = phi ptr [ %0, %4 ], [ %100, %98 ]
  store i32 %96, ptr %.06673, align 4, !tbaa !8
  %99 = getelementptr inbounds nuw i8, ptr %.06673, i64 4
  store i32 %96, ptr %99, align 4, !tbaa !8
  %100 = getelementptr inbounds i8, ptr %.06673, i64 %97
  %101 = add nuw nsw i32 %.074, 1
  %exitcond.not = icmp eq i32 %101, 8
  br i1 %exitcond.not, label %102, label %98, !llvm.loop !248

102:                                              ; preds = %98
  ret void
}